; Function Attrs: mustprogress nounwind uwtable
define void @_ZN19OpenColorIO_v2_5dev5BakerD2Ev(ptr noundef nonnull align 8 captures(none) dereferenceable(8) %0) unnamed_addr #6 align 2 {
  %2 = load ptr, ptr %0, align 8, !tbaa !22
  %3 = icmp eq ptr %2, null
  br i1 %3, label %5, label %4

4:                                                ; preds = %1
  tail call void @_ZN19OpenColorIO_v2_5dev5Baker4ImplD2Ev(ptr noundef nonnull align 8 dereferenceable(368) %2) #28
  tail call void @_ZdlPvm(ptr noundef nonnull %2, i64 noundef 368) #29
  br label %5

5:                                                ; preds = %4, %1
  store ptr null, ptr %0, align 8, !tbaa !22
  ret void
}